target datalayout = "e-m:e-p270:32:32-p271:32:32-p272:64:64-i64:64-i128:128-f80:128-n8:16:32:64-S128"
target triple = "x86_64-pc-linux-gnu"

%struct.ATRAC9BlockConfig = type { %struct.AVChannelLayout, [5 x i32], [5 x [2 x i32]], i32 }
%struct.AVChannelLayout = type { i32, i32, %union.anon.0, ptr }
%union.anon.0 = type { i64 }
%struct.AVCodecContext = type { ptr, i32, i32, ptr, i32, i32, ptr, ptr, ptr, i64, i32, i32, ptr, i32, %struct.AVRational, %struct.AVRational, %struct.AVRational, i32, i32, i32, i32, i32, %struct.AVRational, i32, i32, i32, i32, i32, i32, i32, i32, i32, i32, i32, ptr, ptr, i32, float, float, float, float, float, float, float, float, float, i32, i32, i32, i32, i32, i32, i32, i32, i32, i32, i32, i32, ptr, ptr, ptr, i32, i32, i32, i32, i32, i32, i32, i32, i32, i32, %struct.AVChannelLayout, i32, i32, i32, i32, i32, i32, i32, i32, ptr, i32, i32, i32, float, float, i32, i32, i32, i32, i32, ptr, i64, i64, float, float, i32, i32, ptr, ptr, i32, i32, i32, i32, i32, ptr, ptr, ptr, ptr, i32, i32, [8 x i64], i32, i32, i32, i32, i32, i32, i32, ptr, ptr, i32, i32, i32, i32, i32, i32, i32, i32, i32, i32, ptr, ptr, i32, i32, ptr, ptr, ptr, ptr, i32, i32, i64, i32, i32, i64, ptr, i64, ptr, i32, ptr, i32 }
%struct.AVRational = type { i32, i32 }
%struct.ATRAC9Context = type { ptr, ptr, ptr, ptr, [5 x %struct.ATRAC9BlockData], %struct.AVLFG, i32, i32, i32, i32, ptr, [48 x [48 x i8]], [256 x float], [2048 x float] }
%struct.ATRAC9BlockData = type { [2 x %struct.ATRAC9ChannelData], i32, i32, i32, i32, i32, i32, i32, i32, i32, [31 x i32], i32, [30 x i32], i32 }
%struct.ATRAC9ChannelData = type { i32, i32, [4 x i32], [31 x i32], [31 x i32], [30 x i32], [30 x i32], [30 x i32], [30 x i32], [256 x i32], [256 x i32], [256 x float], [128 x float] }
%struct.AVLFG = type { [64 x i32], i32 }

; Function Attrs: nounwind uwtable
define internal void @atrac9_decode_flush(ptr noundef %0) #1 {
  %2 = alloca ptr, align 8
  %3 = alloca ptr, align 8
  %4 = alloca i32, align 4
  %5 = alloca i32, align 4
  %6 = alloca ptr, align 8
  %7 = alloca i32, align 4
  %8 = alloca i32, align 4
  %9 = alloca ptr, align 8
  store ptr %0, ptr %2, align 8, !tbaa !4
  call void @llvm.lifetime.start.p0(i64 8, ptr %3) #11
  %10 = load ptr, ptr %2, align 8, !tbaa !4
  %11 = getelementptr inbounds nuw %struct.AVCodecContext, ptr %10, i32 0, i32 6
  %12 = load ptr, ptr %11, align 8, !tbaa !9
  store ptr %12, ptr %3, align 8, !tbaa !29
  call void @llvm.lifetime.start.p0(i64 4, ptr %4) #11
  store i32 0, ptr %4, align 4, !tbaa !41
  br label %13

13:                                               ; preds = %56, %1
  %14 = load i32, ptr %4, align 4, !tbaa !41
  %15 = load ptr, ptr %3, align 8, !tbaa !29
  %16 = getelementptr inbounds nuw %struct.ATRAC9Context, ptr %15, i32 0, i32 10
  %17 = load ptr, ptr %16, align 8, !tbaa !44
  %18 = getelementptr inbounds nuw %struct.ATRAC9BlockConfig, ptr %17, i32 0, i32 3
  %19 = load i32, ptr %18, align 4, !tbaa !71
  %20 = icmp slt i32 %14, %19
  br i1 %20, label %22, label %21

21:                                               ; preds = %13
  store i32 2, ptr %5, align 4
  call void @llvm.lifetime.end.p0(i64 4, ptr %4) #11
  br label %59

22:                                               ; preds = %13
  call void @llvm.lifetime.start.p0(i64 8, ptr %6) #11
  %23 = load ptr, ptr %3, align 8, !tbaa !29
  %24 = getelementptr inbounds nuw %struct.ATRAC9Context, ptr %23, i32 0, i32 4
  %25 = load i32, ptr %4, align 4, !tbaa !41
  %26 = sext i32 %25 to i64
  %27 = getelementptr inbounds [5 x %struct.ATRAC9BlockData], ptr %24, i64 0, i64 %26
  store ptr %27, ptr %6, align 8, !tbaa !75
  call void @llvm.lifetime.start.p0(i64 4, ptr %7) #11
  %28 = load ptr, ptr %3, align 8, !tbaa !29
  %29 = getelementptr inbounds nuw %struct.ATRAC9Context, ptr %28, i32 0, i32 10
  %30 = load ptr, ptr %29, align 8, !tbaa !44
  %31 = getelementptr inbounds nuw %struct.ATRAC9BlockConfig, ptr %30, i32 0, i32 1
  %32 = load i32, ptr %4, align 4, !tbaa !41
  %33 = sext i32 %32 to i64
  %34 = getelementptr inbounds [5 x i32], ptr %31, i64 0, i64 %33
  %35 = load i32, ptr %34, align 4, !tbaa !41
  %36 = icmp eq i32 %35, 1
  %37 = zext i1 %36 to i32
  store i32 %37, ptr %7, align 4, !tbaa !41
  call void @llvm.lifetime.start.p0(i64 4, ptr %8) #11
  store i32 0, ptr %8, align 4, !tbaa !41
  br label %38

38:                                               ; preds = %52, %22
  %39 = load i32, ptr %8, align 4, !tbaa !41
  %40 = load i32, ptr %7, align 4, !tbaa !41
  %41 = icmp sle i32 %39, %40
  br i1 %41, label %43, label %42

42:                                               ; preds = %38
  store i32 5, ptr %5, align 4
  call void @llvm.lifetime.end.p0(i64 4, ptr %8) #11
  br label %55

43:                                               ; preds = %38
  call void @llvm.lifetime.start.p0(i64 8, ptr %9) #11
  %44 = load ptr, ptr %6, align 8, !tbaa !75
  %45 = getelementptr inbounds nuw %struct.ATRAC9BlockData, ptr %44, i32 0, i32 0
  %46 = load i32, ptr %8, align 4, !tbaa !41
  %47 = sext i32 %46 to i64
  %48 = getelementptr inbounds [2 x %struct.ATRAC9ChannelData], ptr %45, i64 0, i64 %47
  store ptr %48, ptr %9, align 8, !tbaa !77
  %49 = load ptr, ptr %9, align 8, !tbaa !77
  %50 = getelementptr inbounds nuw %struct.ATRAC9ChannelData, ptr %49, i32 0, i32 12
  %51 = getelementptr inbounds [128 x float], ptr %50, i64 0, i64 0
  call void @llvm.memset.p0.i64(ptr align 16 %51, i8 0, i64 512, i1 false)
  call void @llvm.lifetime.end.p0(i64 8, ptr %9) #11
  br label %52

52:                                               ; preds = %43
  %53 = load i32, ptr %8, align 4, !tbaa !41
  %54 = add nsw i32 %53, 1
  store i32 %54, ptr %8, align 4, !tbaa !41
  br label %38, !llvm.loop !79

55:                                               ; preds = %42
  call void @llvm.lifetime.end.p0(i64 4, ptr %7) #11
  call void @llvm.lifetime.end.p0(i64 8, ptr %6) #11
  br label %56

56:                                               ; preds = %55
  %57 = load i32, ptr %4, align 4, !tbaa !41
  %58 = add nsw i32 %57, 1
  store i32 %58, ptr %4, align 4, !tbaa !41
  br label %13, !llvm.loop !80

59:                                               ; preds = %21
  call void @llvm.lifetime.end.p0(i64 8, ptr %3) #11
  ret void
}