; Function Attrs: nofree norecurse nosync nounwind memory(readwrite, inaccessiblemem: none) uwtable
define internal void @atrac9_decode_flush(ptr noundef readonly captures(none) %0) #2 {
  %2 = getelementptr inbounds nuw i8, ptr %0, i64 32
  %3 = load ptr, ptr %2, align 8, !tbaa !4
  %4 = getelementptr inbounds nuw i8, ptr %3, i64 45112
  %5 = load ptr, ptr %4, align 8, !tbaa !41
  %6 = getelementptr inbounds nuw i8, ptr %5, i64 84
  %7 = load i32, ptr %6, align 4, !tbaa !63
  %8 = icmp sgt i32 %7, 0
  br i1 %8, label %.lr.ph, label %._crit_edge

.lr.ph:                                           ; preds = %1
  %9 = getelementptr inbounds nuw i8, ptr %3, i64 32
  br label %10

._crit_edge:                                      ; preds = %17, %1
  ret void

10:                                               ; preds = %.lr.ph, %17
  %indvars.iv17 = phi i64 [ 0, %.lr.ph ], [ %indvars.iv.next18, %17 ]
  %11 = phi ptr [ %5, %.lr.ph ], [ %18, %17 ]
  %12 = getelementptr inbounds nuw [5 x %struct.ATRAC9BlockData], ptr %9, i64 0, i64 %indvars.iv17
  %13 = getelementptr inbounds nuw i8, ptr %11, i64 24
  %14 = getelementptr inbounds nuw [5 x i32], ptr %13, i64 0, i64 %indvars.iv17
  %15 = load i32, ptr %14, align 4, !tbaa !39
  %16 = icmp eq i32 %15, 1
  br label %23

17:                                               ; preds = %23
  %indvars.iv.next18 = add nuw nsw i64 %indvars.iv17, 1
  %18 = load ptr, ptr %4, align 8, !tbaa !41
  %19 = getelementptr inbounds nuw i8, ptr %18, i64 84
  %20 = load i32, ptr %19, align 4, !tbaa !63
  %21 = sext i32 %20 to i64
  %22 = icmp slt i64 %indvars.iv.next18, %21
  br i1 %22, label %10, label %._crit_edge, !llvm.loop !154

23:                                               ; preds = %10, %23
  %24 = phi i1 [ true, %10 ], [ false, %23 ]
  %indvars.iv = phi i64 [ 0, %10 ], [ 1, %23 ]
  %25 = getelementptr inbounds nuw [2 x %struct.ATRAC9ChannelData], ptr %12, i64 0, i64 %indvars.iv, i32 12
  tail call void @llvm.memset.p0.i64(ptr noundef nonnull align 16 dereferenceable(512) %25, i8 0, i64 512, i1 false)
  %.not.not = and i1 %24, %16
  br i1 %.not.not, label %23, label %17, !llvm.loop !155
}